target datalayout = "e-m:e-p270:32:32-p271:32:32-p272:64:64-i64:64-i128:128-f80:128-n8:16:32:64-S128"
target triple = "x86_64-pc-linux-gnu"

; Function Attrs: nounwind uwtable
define internal ptr @Wlc_PrsFindSymbol(ptr noundef %0, i8 noundef signext %1) #0 {
  %3 = alloca ptr, align 8
  %4 = alloca ptr, align 8
  %5 = alloca i8, align 1
  %6 = alloca i32, align 4
  store ptr %0, ptr %4, align 8
  store i8 %1, ptr %5, align 1
  store i32 1, ptr %6, align 4
  br label %7

7:                                                ; preds = %41, %2
  %8 = load ptr, ptr %4, align 8
  %9 = load i8, ptr %8, align 1
  %10 = icmp ne i8 %9, 0
  br i1 %10, label %11, label %44

11:                                               ; preds = %7
  %12 = load i32, ptr %6, align 4
  %13 = icmp ne i32 %12, 0
  br i1 %13, label %14, label %23

14:                                               ; preds = %11
  %15 = load ptr, ptr %4, align 8
  %16 = load i8, ptr %15, align 1
  %17 = sext i8 %16 to i32
  %18 = load i8, ptr %5, align 1
  %19 = sext i8 %18 to i32
  %20 = icmp eq i32 %17, %19
  br i1 %20, label %21, label %23

21:                                               ; preds = %14
  %22 = load ptr, ptr %4, align 8
  store ptr %22, ptr %3, align 8
  br label %45

23:                                               ; preds = %14, %11
  %24 = load ptr, ptr %4, align 8
  %25 = getelementptr inbounds i8, ptr %24, i64 0
  %26 = load i8, ptr %25, align 1
  %27 = sext i8 %26 to i32
  %28 = icmp eq i32 %27, 92
  br i1 %28, label %29, label %30

29:                                               ; preds = %23
  store i32 0, ptr %6, align 4
  br label %40

30:                                               ; preds = %23
  %31 = load i32, ptr %6, align 4
  %32 = icmp ne i32 %31, 0
  br i1 %32, label %39, label %33

33:                                               ; preds = %30
  %34 = load ptr, ptr %4, align 8
  %35 = load i8, ptr %34, align 1
  %36 = sext i8 %35 to i32
  %37 = icmp eq i32 %36, 32
  br i1 %37, label %38, label %39

38:                                               ; preds = %33
  store i32 1, ptr %6, align 4
  br label %39

39:                                               ; preds = %38, %33, %30
  br label %40

40:                                               ; preds = %39, %29
  br label %41

41:                                               ; preds = %40
  %42 = load ptr, ptr %4, align 8
  %43 = getelementptr inbounds i8, ptr %42, i32 1
  store ptr %43, ptr %4, align 8
  br label %7, !llvm.loop !13

44:                                               ; preds = %7
  store ptr null, ptr %3, align 8
  br label %45

45:                                               ; preds = %44, %21
  %46 = load ptr, ptr %3, align 8
  ret ptr %46
}

; Function Attrs: nounwind uwtable
define internal i32 @Wlc_PrsIsDigit(ptr noundef %0) #0 {
  %2 = alloca ptr, align 8
  store ptr %0, ptr %2, align 8
  %3 = load ptr, ptr %2, align 8
  %4 = getelementptr inbounds i8, ptr %3, i64 0
  %5 = load i8, ptr %4, align 1
  %6 = sext i8 %5 to i32
  %7 = icmp sge i32 %6, 48
  br i1 %7, label %8, label %14

8:                                                ; preds = %1
  %9 = load ptr, ptr %2, align 8
  %10 = getelementptr inbounds i8, ptr %9, i64 0
  %11 = load i8, ptr %10, align 1
  %12 = sext i8 %11 to i32
  %13 = icmp sle i32 %12, 57
  br label %14

14:                                               ; preds = %8, %1
  %15 = phi i1 [ false, %1 ], [ %13, %8 ]
  %16 = zext i1 %15 to i32
  ret i32 %16
}

; Function Attrs: nounwind uwtable
define internal ptr @Wlc_PrsSkipSpaces(ptr noundef %0) #0 {
  %2 = alloca ptr, align 8
  store ptr %0, ptr %2, align 8
  br label %3

3:                                                ; preds = %15, %1
  %4 = load ptr, ptr %2, align 8
  %5 = load i8, ptr %4, align 1
  %6 = sext i8 %5 to i32
  %7 = icmp ne i32 %6, 0
  br i1 %7, label %8, label %13

8:                                                ; preds = %3
  %9 = load ptr, ptr %2, align 8
  %10 = load i8, ptr %9, align 1
  %11 = sext i8 %10 to i32
  %12 = icmp eq i32 %11, 32
  br label %13

13:                                               ; preds = %8, %3
  %14 = phi i1 [ false, %3 ], [ %12, %8 ]
  br i1 %14, label %15, label %18

15:                                               ; preds = %13
  %16 = load ptr, ptr %2, align 8
  %17 = getelementptr inbounds i8, ptr %16, i32 1
  store ptr %17, ptr %2, align 8
  br label %3, !llvm.loop !19

18:                                               ; preds = %13
  %19 = load ptr, ptr %2, align 8
  ret ptr %19
}

; Function Attrs: nounwind uwtable
define internal ptr @Wlc_PrsFindRange(ptr noundef %0, ptr noundef %1, ptr noundef %2) #0 {
  %4 = alloca ptr, align 8
  %5 = alloca ptr, align 8
  %6 = alloca ptr, align 8
  %7 = alloca ptr, align 8
  store ptr %0, ptr %5, align 8
  store ptr %1, ptr %6, align 8
  store ptr %2, ptr %7, align 8
  %8 = load ptr, ptr %7, align 8
  store i32 0, ptr %8, align 4
  %9 = load ptr, ptr %6, align 8
  store i32 0, ptr %9, align 4
  %10 = load ptr, ptr %5, align 8
  %11 = call ptr @Wlc_PrsSkipSpaces(ptr noundef %10)
  store ptr %11, ptr %5, align 8
  %12 = load ptr, ptr %5, align 8
  %13 = getelementptr inbounds i8, ptr %12, i64 0
  %14 = load i8, ptr %13, align 1
  %15 = sext i8 %14 to i32
  %16 = icmp ne i32 %15, 91
  br i1 %16, label %17, label %19

17:                                               ; preds = %3
  %18 = load ptr, ptr %5, align 8
  store ptr %18, ptr %4, align 8
  br label %77

19:                                               ; preds = %3
  %20 = load ptr, ptr %5, align 8
  %21 = getelementptr inbounds i8, ptr %20, i64 1
  %22 = call ptr @Wlc_PrsSkipSpaces(ptr noundef %21)
  store ptr %22, ptr %5, align 8
  %23 = load ptr, ptr %5, align 8
  %24 = call i32 @Wlc_PrsIsDigit(ptr noundef %23)
  %25 = icmp ne i32 %24, 0
  br i1 %25, label %33, label %26

26:                                               ; preds = %19
  %27 = load ptr, ptr %5, align 8
  %28 = getelementptr inbounds i8, ptr %27, i64 0
  %29 = load i8, ptr %28, align 1
  %30 = sext i8 %29 to i32
  %31 = icmp ne i32 %30, 45
  br i1 %31, label %32, label %33

32:                                               ; preds = %26
  store ptr null, ptr %4, align 8
  br label %77

33:                                               ; preds = %26, %19
  %34 = load ptr, ptr %5, align 8
  %35 = call i32 @atoi(ptr noundef %34) #11
  %36 = load ptr, ptr %7, align 8
  store i32 %35, ptr %36, align 4
  %37 = load ptr, ptr %6, align 8
  store i32 %35, ptr %37, align 4
  %38 = load ptr, ptr %5, align 8
  %39 = call ptr @Wlc_PrsFindSymbol(ptr noundef %38, i8 noundef signext 58)
  %40 = icmp eq ptr %39, null
  br i1 %40, label %41, label %48

41:                                               ; preds = %33
  %42 = load ptr, ptr %5, align 8
  %43 = call ptr @Wlc_PrsFindSymbol(ptr noundef %42, i8 noundef signext 93)
  store ptr %43, ptr %5, align 8
  %44 = load ptr, ptr %5, align 8
  %45 = icmp eq ptr %44, null
  br i1 %45, label %46, label %47

46:                                               ; preds = %41
  store ptr null, ptr %4, align 8
  br label %77

47:                                               ; preds = %41
  br label %74

48:                                               ; preds = %33
  %49 = load ptr, ptr %5, align 8
  %50 = call ptr @Wlc_PrsFindSymbol(ptr noundef %49, i8 noundef signext 58)
  store ptr %50, ptr %5, align 8
  %51 = load ptr, ptr %5, align 8
  %52 = getelementptr inbounds i8, ptr %51, i64 1
  %53 = call ptr @Wlc_PrsSkipSpaces(ptr noundef %52)
  store ptr %53, ptr %5, align 8
  %54 = load ptr, ptr %5, align 8
  %55 = call i32 @Wlc_PrsIsDigit(ptr noundef %54)
  %56 = icmp ne i32 %55, 0
  br i1 %56, label %64, label %57

57:                                               ; preds = %48
  %58 = load ptr, ptr %5, align 8
  %59 = getelementptr inbounds i8, ptr %58, i64 0
  %60 = load i8, ptr %59, align 1
  %61 = sext i8 %60 to i32
  %62 = icmp ne i32 %61, 45
  br i1 %62, label %63, label %64

63:                                               ; preds = %57
  store ptr null, ptr %4, align 8
  br label %77

64:                                               ; preds = %57, %48
  %65 = load ptr, ptr %5, align 8
  %66 = call i32 @atoi(ptr noundef %65) #11
  %67 = load ptr, ptr %7, align 8
  store i32 %66, ptr %67, align 4
  %68 = load ptr, ptr %5, align 8
  %69 = call ptr @Wlc_PrsFindSymbol(ptr noundef %68, i8 noundef signext 93)
  store ptr %69, ptr %5, align 8
  %70 = load ptr, ptr %5, align 8
  %71 = icmp eq ptr %70, null
  br i1 %71, label %72, label %73

72:                                               ; preds = %64
  store ptr null, ptr %4, align 8
  br label %77

73:                                               ; preds = %64
  br label %74

74:                                               ; preds = %73, %47
  %75 = load ptr, ptr %5, align 8
  %76 = getelementptr inbounds i8, ptr %75, i64 1
  store ptr %76, ptr %4, align 8
  br label %77

77:                                               ; preds = %74, %72, %63, %46, %32, %17
  %78 = load ptr, ptr %4, align 8
  ret ptr %78
}