; Function Attrs: nofree nounwind memory(read, argmem: readwrite) uwtable
define internal fastcc ptr @Wlc_PrsFindRange(ptr noundef readonly %0, ptr noundef nonnull writeonly captures(none) initializes((0, 4)) %1, ptr noundef nonnull writeonly captures(none) initializes((0, 4)) %2) unnamed_addr #12 {
  store i32 0, ptr %2, align 4
  store i32 0, ptr %1, align 4
  br label %4

4:                                                ; preds = %4, %3
  %.0.i = phi ptr [ %0, %3 ], [ %6, %4 ]
  %5 = load i8, ptr %.0.i, align 1
  %6 = getelementptr inbounds nuw i8, ptr %.0.i, i64 1
  switch i8 %5, label %Wlc_PrsFindSymbol.exit43.thread [
    i8 32, label %4
    i8 91, label %.preheader
  ]

.preheader:                                       ; preds = %4, %.preheader
  %.0.i32 = phi ptr [ %8, %.preheader ], [ %6, %4 ]
  %7 = load i8, ptr %.0.i32, align 1
  %cond.i33 = icmp eq i8 %7, 32
  %8 = getelementptr inbounds nuw i8, ptr %.0.i32, i64 1
  br i1 %cond.i33, label %.preheader, label %Wlc_PrsSkipSpaces.exit34, !llvm.loop !12

Wlc_PrsSkipSpaces.exit34:                         ; preds = %.preheader
  %9 = add i8 %7, -48
  %narrow.i = icmp ult i8 %9, 10
  %.not28 = icmp eq i8 %7, 45
  %or.cond = or i1 %.not28, %narrow.i
  br i1 %or.cond, label %10, label %Wlc_PrsFindSymbol.exit43.thread

10:                                               ; preds = %Wlc_PrsSkipSpaces.exit34
  %11 = tail call i32 @atoi(ptr noundef nonnull %.0.i32) #26
  store i32 %11, ptr %2, align 4
  store i32 %11, ptr %1, align 4
  %12 = load i8, ptr %.0.i32, align 1
  %.not15.i = icmp eq i8 %12, 0
  br i1 %.not15.i, label %Wlc_PrsFindSymbol.exit43.thread, label %.lr.ph.i

.lr.ph.i:                                         ; preds = %10, %15
  %13 = phi i8 [ %19, %15 ], [ %12, %10 ]
  %.017.i = phi i1 [ %.1.v.i, %15 ], [ true, %10 ]
  %.01016.i = phi ptr [ %18, %15 ], [ %.0.i32, %10 ]
  %14 = icmp eq i8 %13, 58
  %or.cond.i = and i1 %.017.i, %14
  br i1 %or.cond.i, label %.lr.ph.i45, label %15

15:                                               ; preds = %.lr.ph.i
  %16 = icmp ne i8 %13, 92
  %17 = icmp eq i8 %13, 32
  %.1.v.i = select i1 %.017.i, i1 %16, i1 %17
  %18 = getelementptr inbounds nuw i8, ptr %.01016.i, i64 1
  %19 = load i8, ptr %18, align 1
  %.not.i = icmp eq i8 %19, 0
  br i1 %.not.i, label %.lr.ph.i36, label %.lr.ph.i, !llvm.loop !7

.lr.ph.i36:                                       ; preds = %15, %22
  %20 = phi i8 [ %26, %22 ], [ %12, %15 ]
  %.017.i37 = phi i1 [ %.1.v.i40, %22 ], [ true, %15 ]
  %.01016.i38 = phi ptr [ %25, %22 ], [ %.0.i32, %15 ]
  %21 = icmp eq i8 %20, 93
  %or.cond.i39 = and i1 %.017.i37, %21
  br i1 %or.cond.i39, label %Wlc_PrsFindSymbol.exit43, label %22

22:                                               ; preds = %.lr.ph.i36
  %23 = icmp ne i8 %20, 92
  %24 = icmp eq i8 %20, 32
  %.1.v.i40 = select i1 %.017.i37, i1 %23, i1 %24
  %25 = getelementptr inbounds nuw i8, ptr %.01016.i38, i64 1
  %26 = load i8, ptr %25, align 1
  %.not.i41 = icmp eq i8 %26, 0
  br i1 %.not.i41, label %Wlc_PrsFindSymbol.exit43.thread, label %.lr.ph.i36, !llvm.loop !7

.lr.ph.i45:                                       ; preds = %.lr.ph.i, %29
  %27 = phi i8 [ %33, %29 ], [ %12, %.lr.ph.i ]
  %.017.i46 = phi i1 [ %.1.v.i49, %29 ], [ true, %.lr.ph.i ]
  %.01016.i47 = phi ptr [ %32, %29 ], [ %.0.i32, %.lr.ph.i ]
  %28 = icmp eq i8 %27, 58
  %or.cond.i48 = and i1 %.017.i46, %28
  br i1 %or.cond.i48, label %Wlc_PrsFindSymbol.exit52.preheader, label %29

29:                                               ; preds = %.lr.ph.i45
  %30 = icmp ne i8 %27, 92
  %31 = icmp eq i8 %27, 32
  %.1.v.i49 = select i1 %.017.i46, i1 %30, i1 %31
  %32 = getelementptr inbounds nuw i8, ptr %.01016.i47, i64 1
  %33 = load i8, ptr %32, align 1
  %.not.i50 = icmp eq i8 %33, 0
  br i1 %.not.i50, label %Wlc_PrsFindSymbol.exit52.preheader, label %.lr.ph.i45, !llvm.loop !7

Wlc_PrsFindSymbol.exit52.preheader:               ; preds = %.lr.ph.i45, %29
  %.09.i51.pn.ph = phi ptr [ %.01016.i47, %.lr.ph.i45 ], [ null, %29 ]
  br label %Wlc_PrsFindSymbol.exit52

Wlc_PrsFindSymbol.exit52:                         ; preds = %Wlc_PrsFindSymbol.exit52.preheader, %Wlc_PrsFindSymbol.exit52
  %.09.i51.pn = phi ptr [ %.0.i53, %Wlc_PrsFindSymbol.exit52 ], [ %.09.i51.pn.ph, %Wlc_PrsFindSymbol.exit52.preheader ]
  %.0.i53 = getelementptr inbounds nuw i8, ptr %.09.i51.pn, i64 1
  %34 = load i8, ptr %.0.i53, align 1
  %cond.i54 = icmp eq i8 %34, 32
  br i1 %cond.i54, label %Wlc_PrsFindSymbol.exit52, label %Wlc_PrsSkipSpaces.exit55, !llvm.loop !12

Wlc_PrsSkipSpaces.exit55:                         ; preds = %Wlc_PrsFindSymbol.exit52
  %35 = add i8 %34, -48
  %narrow.i56 = icmp ult i8 %35, 10
  %.not30 = icmp eq i8 %34, 45
  %or.cond69 = or i1 %.not30, %narrow.i56
  br i1 %or.cond69, label %36, label %Wlc_PrsFindSymbol.exit43.thread

36:                                               ; preds = %Wlc_PrsSkipSpaces.exit55
  %37 = tail call i32 @atoi(ptr noundef nonnull %.0.i53) #26
  store i32 %37, ptr %2, align 4
  %38 = load i8, ptr %.0.i53, align 1
  %.not15.i57 = icmp eq i8 %38, 0
  br i1 %.not15.i57, label %Wlc_PrsFindSymbol.exit43.thread, label %.lr.ph.i58

.lr.ph.i58:                                       ; preds = %36, %41
  %39 = phi i8 [ %45, %41 ], [ %38, %36 ]
  %.017.i59 = phi i1 [ %.1.v.i62, %41 ], [ true, %36 ]
  %.01016.i60 = phi ptr [ %44, %41 ], [ %.0.i53, %36 ]
  %40 = icmp eq i8 %39, 93
  %or.cond.i61 = and i1 %.017.i59, %40
  br i1 %or.cond.i61, label %Wlc_PrsFindSymbol.exit43, label %41

41:                                               ; preds = %.lr.ph.i58
  %42 = icmp ne i8 %39, 92
  %43 = icmp eq i8 %39, 32
  %.1.v.i62 = select i1 %.017.i59, i1 %42, i1 %43
  %44 = getelementptr inbounds nuw i8, ptr %.01016.i60, i64 1
  %45 = load i8, ptr %44, align 1
  %.not.i63 = icmp eq i8 %45, 0
  br i1 %.not.i63, label %Wlc_PrsFindSymbol.exit43.thread, label %.lr.ph.i58, !llvm.loop !7

Wlc_PrsFindSymbol.exit43:                         ; preds = %.lr.ph.i36, %.lr.ph.i58
  %.024 = phi ptr [ %.01016.i60, %.lr.ph.i58 ], [ %.01016.i38, %.lr.ph.i36 ]
  %46 = getelementptr inbounds nuw i8, ptr %.024, i64 1
  br label %Wlc_PrsFindSymbol.exit43.thread

Wlc_PrsFindSymbol.exit43.thread:                  ; preds = %4, %22, %41, %Wlc_PrsSkipSpaces.exit55, %Wlc_PrsSkipSpaces.exit34, %36, %10, %Wlc_PrsFindSymbol.exit43
  %.0 = phi ptr [ %46, %Wlc_PrsFindSymbol.exit43 ], [ null, %10 ], [ null, %36 ], [ null, %Wlc_PrsSkipSpaces.exit34 ], [ null, %Wlc_PrsSkipSpaces.exit55 ], [ null, %41 ], [ null, %22 ], [ %.0.i, %4 ]
  ret ptr %.0
}